; Function Attrs: mustprogress nounwind uwtable
define hidden void @_ZN23G1FullGCCompactionPointD2Ev(ptr nocapture noundef nonnull readonly align 8 dereferenceable(56) %0) unnamed_addr #0 align 2 {
  %2 = getelementptr inbounds i8, ptr %0, i64 32
  %3 = load ptr, ptr %2, align 8
  %4 = icmp eq ptr %3, null
  br i1 %4, label %10, label %5

5:                                                ; preds = %1
  %6 = getelementptr inbounds i8, ptr %3, i64 16
  %7 = load i64, ptr %6, align 8
  %8 = and i64 %7, 1
  %.not.i = icmp eq i64 %8, 0
  br i1 %.not.i, label %_ZN13GrowableArrayIP12G1HeapRegionED2Ev.exit, label %9

9:                                                ; preds = %5
  store i32 0, ptr %3, align 4
  tail call void @_ZN26GrowableArrayWithAllocatorIP12G1HeapRegion13GrowableArrayIS1_EE13shrink_to_fitEv(ptr noundef nonnull align 8 dereferenceable(16) %3)
  br label %_ZN13GrowableArrayIP12G1HeapRegionED2Ev.exit

_ZN13GrowableArrayIP12G1HeapRegionED2Ev.exit:     ; preds = %5, %9
  tail call void @_ZN6AnyObjdlEPv(ptr noundef nonnull %3) #16
  br label %10

10:                                               ; preds = %_ZN13GrowableArrayIP12G1HeapRegionED2Ev.exit, %1
  ret void
}